; ModuleID = 'source-C-CXX/60/1423.cpp'
source_filename = "source-C-CXX/60/1423.cpp"
target datalayout = "e-m:e-p270:32:32-p271:32:32-p272:64:64-i64:64-f80:128-n8:16:32:64-S128"
target triple = "x86_64-pc-linux-gnu"

%"class.std::ios_base::Init" = type { i8 }
%"class.std::basic_istream" = type { i32 (...)**, i64, %"class.std::basic_ios" }
%"class.std::basic_ios" = type { %"class.std::ios_base", %"class.std::basic_ostream"*, i8, i8, %"class.std::basic_streambuf"*, %"class.std::ctype"*, %"class.std::num_put"*, %"class.std::num_get"* }
%"class.std::ios_base" = type { i32 (...)**, i64, i64, i32, i32, i32, %"struct.std::ios_base::_Callback_list"*, %"struct.std::ios_base::_Words", [8 x %"struct.std::ios_base::_Words"], i32, %"struct.std::ios_base::_Words"*, %"class.std::locale" }
%"struct.std::ios_base::_Callback_list" = type { %"struct.std::ios_base::_Callback_list"*, void (i32, %"class.std::ios_base"*, i32)*, i32, i32 }
%"struct.std::ios_base::_Words" = type { i8*, i64 }
%"class.std::locale" = type { %"class.std::locale::_Impl"* }
%"class.std::locale::_Impl" = type { i32, %"class.std::locale::facet"**, i64, %"class.std::locale::facet"**, i8** }
%"class.std::locale::facet" = type <{ i32 (...)**, i32, [4 x i8] }>
%"class.std::basic_ostream" = type { i32 (...)**, %"class.std::basic_ios" }
%"class.std::basic_streambuf" = type { i32 (...)**, i8*, i8*, i8*, i8*, i8*, i8*, %"class.std::locale" }
%"class.std::ctype" = type <{ %"class.std::locale::facet.base", [4 x i8], %struct.__locale_struct*, i8, [7 x i8], i32*, i32*, i16*, i8, [256 x i8], [256 x i8], i8, [6 x i8] }>
%"class.std::locale::facet.base" = type <{ i32 (...)**, i32 }>
%struct.__locale_struct = type { [13 x %struct.__locale_data*], i16*, i32*, i32*, [13 x i8*] }
%struct.__locale_data = type opaque
%"class.std::num_put" = type { %"class.std::locale::facet.base", [4 x i8] }
%"class.std::num_get" = type { %"class.std::locale::facet.base", [4 x i8] }

@_ZStL8__ioinit = internal global %"class.std::ios_base::Init" zeroinitializer, align 1
@__dso_handle = external hidden global i8
@_ZSt3cin = external global %"class.std::basic_istream", align 8
@_ZSt4cout = external global %"class.std::basic_ostream", align 8
@llvm.global_ctors = appending global [1 x { i32, void ()*, i8* }] [{ i32, void ()*, i8* } { i32 65535, void ()* @_GLOBAL__sub_I_1423.cpp, i8* null }]

declare void @_ZNSt8ios_base4InitC1Ev(%"class.std::ios_base::Init"* nonnull align 1 dereferenceable(1)) unnamed_addr #0

; Function Attrs: nounwind
declare void @_ZNSt8ios_base4InitD1Ev(%"class.std::ios_base::Init"* nonnull align 1 dereferenceable(1)) unnamed_addr #1

; Function Attrs: nofree nounwind
declare i32 @__cxa_atexit(void (i8*)*, i8*, i8*) local_unnamed_addr #2

; Function Attrs: mustprogress norecurse sspstrong uwtable
define dso_local i32 @main() local_unnamed_addr #3 {
  %1 = alloca i32, align 4
  %2 = alloca [20 x i32], align 16
  %3 = alloca [20 x i32], align 16
  %4 = bitcast i32* %1 to i8*
  call void @llvm.lifetime.start.p0i8(i64 4, i8* nonnull %4) #8
  %5 = call nonnull align 8 dereferenceable(16) %"class.std::basic_istream"* @_ZNSirsERi(%"class.std::basic_istream"* nonnull align 8 dereferenceable(16) @_ZSt3cin, i32* nonnull align 4 dereferenceable(4) %1)
  %6 = bitcast [20 x i32]* %2 to i8*
  call void @llvm.lifetime.start.p0i8(i64 80, i8* nonnull %6) #8
  %7 = bitcast [20 x i32]* %2 to <4 x i32>*
  store <4 x i32> <i32 1, i32 1, i32 2, i32 3>, <4 x i32>* %7, align 16, !tbaa !5
  %8 = getelementptr inbounds [20 x i32], [20 x i32]* %2, i64 0, i64 4
  %9 = bitcast i32* %8 to <4 x i32>*
  store <4 x i32> <i32 5, i32 8, i32 13, i32 21>, <4 x i32>* %9, align 16, !tbaa !5
  %10 = getelementptr inbounds [20 x i32], [20 x i32]* %2, i64 0, i64 8
  %11 = bitcast i32* %10 to <4 x i32>*
  store <4 x i32> <i32 34, i32 55, i32 89, i32 144>, <4 x i32>* %11, align 16, !tbaa !5
  %12 = getelementptr inbounds [20 x i32], [20 x i32]* %2, i64 0, i64 12
  %13 = bitcast i32* %12 to <4 x i32>*
  store <4 x i32> <i32 233, i32 377, i32 610, i32 987>, <4 x i32>* %13, align 16, !tbaa !5
  %14 = getelementptr inbounds [20 x i32], [20 x i32]* %2, i64 0, i64 16
  %15 = bitcast i32* %14 to <4 x i32>*
  store <4 x i32> <i32 1597, i32 2584, i32 4181, i32 6765>, <4 x i32>* %15, align 16, !tbaa !5
  %16 = bitcast [20 x i32]* %3 to i8*
  call void @llvm.lifetime.start.p0i8(i64 80, i8* nonnull %16) #8
  call void @llvm.memset.p0i8.i64(i8* noundef nonnull align 16 dereferenceable(80) %16, i8 0, i64 80, i1 false)
  %17 = getelementptr inbounds [20 x i32], [20 x i32]* %3, i64 0, i64 0
  store i32 -1, i32* %17, align 16
  br label %18

18:                                               ; preds = %18, %0
  %19 = phi i64 [ %22, %18 ], [ 0, %0 ]
  %20 = getelementptr inbounds [20 x i32], [20 x i32]* %3, i64 0, i64 %19
  %21 = call nonnull align 8 dereferenceable(16) %"class.std::basic_istream"* @_ZNSirsERi(%"class.std::basic_istream"* nonnull align 8 dereferenceable(16) @_ZSt3cin, i32* nonnull align 4 dereferenceable(4) %20)
  %22 = add nuw nsw i64 %19, 1
  %23 = load i32, i32* %1, align 4, !tbaa !5
  %24 = sext i32 %23 to i64
  %25 = icmp slt i64 %22, %24
  br i1 %25, label %18, label %26, !llvm.loop !9

26:                                               ; preds = %18, %60
  %27 = phi i64 [ %64, %60 ], [ 0, %18 ]
  %28 = getelementptr inbounds [20 x i32], [20 x i32]* %3, i64 0, i64 %27
  %29 = load i32, i32* %28, align 4, !tbaa !5
  %30 = add nsw i32 %29, -1
  %31 = sext i32 %30 to i64
  %32 = getelementptr inbounds [20 x i32], [20 x i32]* %2, i64 0, i64 %31
  %33 = load i32, i32* %32, align 4, !tbaa !5
  %34 = call nonnull align 8 dereferenceable(8) %"class.std::basic_ostream"* @_ZNSolsEi(%"class.std::basic_ostream"* nonnull align 8 dereferenceable(8) @_ZSt4cout, i32 %33)
  %35 = bitcast %"class.std::basic_ostream"* %34 to i8**
  %36 = load i8*, i8** %35, align 8, !tbaa !11
  %37 = getelementptr i8, i8* %36, i64 -24
  %38 = bitcast i8* %37 to i64*
  %39 = load i64, i64* %38, align 8
  %40 = bitcast %"class.std::basic_ostream"* %34 to i8*
  %41 = add nsw i64 %39, 240
  %42 = getelementptr inbounds i8, i8* %40, i64 %41
  %43 = bitcast i8* %42 to %"class.std::ctype"**
  %44 = load %"class.std::ctype"*, %"class.std::ctype"** %43, align 8, !tbaa !13
  %45 = icmp eq %"class.std::ctype"* %44, null
  br i1 %45, label %46, label %47

46:                                               ; preds = %26
  call void @_ZSt16__throw_bad_castv() #9
  unreachable

47:                                               ; preds = %26
  %48 = getelementptr inbounds %"class.std::ctype", %"class.std::ctype"* %44, i64 0, i32 8
  %49 = load i8, i8* %48, align 8, !tbaa !17
  %50 = icmp eq i8 %49, 0
  br i1 %50, label %54, label %51

51:                                               ; preds = %47
  %52 = getelementptr inbounds %"class.std::ctype", %"class.std::ctype"* %44, i64 0, i32 9, i64 10
  %53 = load i8, i8* %52, align 1, !tbaa !19
  br label %60

54:                                               ; preds = %47
  call void @_ZNKSt5ctypeIcE13_M_widen_initEv(%"class.std::ctype"* nonnull align 8 dereferenceable(570) %44)
  %55 = bitcast %"class.std::ctype"* %44 to i8 (%"class.std::ctype"*, i8)***
  %56 = load i8 (%"class.std::ctype"*, i8)**, i8 (%"class.std::ctype"*, i8)*** %55, align 8, !tbaa !11
  %57 = getelementptr inbounds i8 (%"class.std::ctype"*, i8)*, i8 (%"class.std::ctype"*, i8)** %56, i64 6
  %58 = load i8 (%"class.std::ctype"*, i8)*, i8 (%"class.std::ctype"*, i8)** %57, align 8
  %59 = call signext i8 %58(%"class.std::ctype"* nonnull align 8 dereferenceable(570) %44, i8 signext 10)
  br label %60

60:                                               ; preds = %51, %54
  %61 = phi i8 [ %53, %51 ], [ %59, %54 ]
  %62 = call nonnull align 8 dereferenceable(8) %"class.std::basic_ostream"* @_ZNSo3putEc(%"class.std::basic_ostream"* nonnull align 8 dereferenceable(8) %34, i8 signext %61)
  %63 = call nonnull align 8 dereferenceable(8) %"class.std::basic_ostream"* @_ZNSo5flushEv(%"class.std::basic_ostream"* nonnull align 8 dereferenceable(8) %62)
  %64 = add nuw nsw i64 %27, 1
  %65 = load i32, i32* %1, align 4, !tbaa !5
  %66 = sext i32 %65 to i64
  %67 = icmp slt i64 %64, %66
  br i1 %67, label %26, label %68, !llvm.loop !20

68:                                               ; preds = %60
  call void @llvm.lifetime.end.p0i8(i64 80, i8* nonnull %16) #8
  call void @llvm.lifetime.end.p0i8(i64 80, i8* nonnull %6) #8
  call void @llvm.lifetime.end.p0i8(i64 4, i8* nonnull %4) #8
  ret i32 0
}

; Function Attrs: argmemonly mustprogress nofree nosync nounwind willreturn
declare void @llvm.lifetime.start.p0i8(i64 immarg, i8* nocapture) #4

declare nonnull align 8 dereferenceable(16) %"class.std::basic_istream"* @_ZNSirsERi(%"class.std::basic_istream"* nonnull align 8 dereferenceable(16), i32* nonnull align 4 dereferenceable(4)) local_unnamed_addr #0

; Function Attrs: argmemonly mustprogress nofree nounwind willreturn writeonly
declare void @llvm.memset.p0i8.i64(i8* nocapture writeonly, i8, i64, i1 immarg) #5

declare nonnull align 8 dereferenceable(8) %"class.std::basic_ostream"* @_ZNSolsEi(%"class.std::basic_ostream"* nonnull align 8 dereferenceable(8), i32) local_unnamed_addr #0

; Function Attrs: argmemonly mustprogress nofree nosync nounwind willreturn
declare void @llvm.lifetime.end.p0i8(i64 immarg, i8* nocapture) #4

declare nonnull align 8 dereferenceable(8) %"class.std::basic_ostream"* @_ZNSo3putEc(%"class.std::basic_ostream"* nonnull align 8 dereferenceable(8), i8 signext) local_unnamed_addr #0

declare nonnull align 8 dereferenceable(8) %"class.std::basic_ostream"* @_ZNSo5flushEv(%"class.std::basic_ostream"* nonnull align 8 dereferenceable(8)) local_unnamed_addr #0

; Function Attrs: noreturn
declare void @_ZSt16__throw_bad_castv() local_unnamed_addr #6

declare void @_ZNKSt5ctypeIcE13_M_widen_initEv(%"class.std::ctype"* nonnull align 8 dereferenceable(570)) local_unnamed_addr #0

; Function Attrs: sspstrong uwtable
define internal void @_GLOBAL__sub_I_1423.cpp() #7 section ".text.startup" {
  tail call void @_ZNSt8ios_base4InitC1Ev(%"class.std::ios_base::Init"* nonnull align 1 dereferenceable(1) @_ZStL8__ioinit)
  %1 = tail call i32 @__cxa_atexit(void (i8*)* bitcast (void (%"class.std::ios_base::Init"*)* @_ZNSt8ios_base4InitD1Ev to void (i8*)*), i8* getelementptr inbounds (%"class.std::ios_base::Init", %"class.std::ios_base::Init"* @_ZStL8__ioinit, i64 0, i32 0), i8* nonnull @__dso_handle) #8
  ret void
}


!llvm.module.flags = !{!0, !1, !2, !3}
!llvm.ident = !{!4}

!0 = !{i32 1, !"wchar_size", i32 4}
!1 = !{i32 7, !"PIC Level", i32 2}
!2 = !{i32 7, !"PIE Level", i32 2}
!3 = !{i32 7, !"uwtable", i32 1}
!4 = !{!"clang version 13.0.0"}
!5 = !{!6, !6, i64 0}
!6 = !{!"int", !7, i64 0}
!7 = !{!"omnipotent char", !8, i64 0}
!8 = !{!"Simple C++ TBAA"}
!9 = distinct !{!9, !10}
!10 = !{!"llvm.loop.mustprogress"}
!11 = !{!12, !12, i64 0}
!12 = !{!"vtable pointer", !8, i64 0}
!13 = !{!14, !15, i64 240}
!14 = !{!"_ZTSSt9basic_iosIcSt11char_traitsIcEE", !15, i64 216, !7, i64 224, !16, i64 225, !15, i64 232, !15, i64 240, !15, i64 248, !15, i64 256}
!15 = !{!"any pointer", !7, i64 0}
!16 = !{!"bool", !7, i64 0}
!17 = !{!18, !7, i64 56}
!18 = !{!"_ZTSSt5ctypeIcE", !15, i64 16, !16, i64 24, !15, i64 32, !15, i64 40, !15, i64 48, !7, i64 56, !7, i64 57, !7, i64 313, !7, i64 569}
!19 = !{!7, !7, i64 0}
!20 = distinct !{!20, !10}
